target datalayout = "e-m:e-p270:32:32-p271:32:32-p272:64:64-i64:64-i128:128-f80:128-n8:16:32:64-S128"
target triple = "x86_64-unknown-linux-gnu"

%"class.std::__cxx11::basic_string" = type { %"struct.std::__cxx11::basic_string<char>::_Alloc_hider", i64, %union.anon }
%"struct.std::__cxx11::basic_string<char>::_Alloc_hider" = type { ptr }
%union.anon = type { i64, [8 x i8] }
%"class.rocksdb::MemTableRep::Iterator" = type { ptr }
%"class.rocksdb::SkipList<const char *, const rocksdb::MemTableRep::KeyComparator &>::Iterator" = type { ptr, ptr }
%"class.rocksdb::(anonymous namespace)::HashLinkListRep::FullListIterator" = type { %"class.rocksdb::MemTableRep::Iterator", %"class.rocksdb::SkipList<const char *, const rocksdb::MemTableRep::KeyComparator &>::Iterator", %"class.std::unique_ptr.48", %"class.std::unique_ptr.56", %"class.std::__cxx11::basic_string" }
%"class.std::unique_ptr.48" = type { %"struct.std::__uniq_ptr_data.49" }
%"struct.std::__uniq_ptr_data.49" = type { %"class.std::__uniq_ptr_impl.50" }
%"class.std::__uniq_ptr_impl.50" = type { %"class.std::tuple.51" }
%"class.std::tuple.51" = type { %"struct.std::_Tuple_impl.52" }
%"struct.std::_Tuple_impl.52" = type { %"struct.std::_Head_base.55" }
%"struct.std::_Head_base.55" = type { ptr }
%"class.std::unique_ptr.56" = type { %"struct.std::__uniq_ptr_data.57" }
%"struct.std::__uniq_ptr_data.57" = type { %"class.std::__uniq_ptr_impl.58" }
%"class.std::__uniq_ptr_impl.58" = type { %"class.std::tuple.59" }
%"class.std::tuple.59" = type { %"struct.std::_Tuple_impl.60" }
%"struct.std::_Tuple_impl.60" = type { %"struct.std::_Head_base.63" }
%"struct.std::_Head_base.63" = type { ptr }

; Function Attrs: mustprogress uwtable
define internal void @_ZN7rocksdb12_GLOBAL__N_115HashLinkListRep16FullListIterator11SeekForPrevERKNS_5SliceEPKc(ptr noundef nonnull align 8 dereferenceable(72) %this, ptr noundef nonnull align 8 dereferenceable(16) %internal_key, ptr noundef %memtable_key) unnamed_addr #0 align 2 {
entry:
  %this.addr = alloca ptr, align 8
  %internal_key.addr = alloca ptr, align 8
  %memtable_key.addr = alloca ptr, align 8
  %encoded_key = alloca ptr, align 8
  store ptr %this, ptr %this.addr, align 8
  store ptr %internal_key, ptr %internal_key.addr, align 8
  store ptr %memtable_key, ptr %memtable_key.addr, align 8
  %this1 = load ptr, ptr %this.addr, align 8
  %0 = load ptr, ptr %memtable_key.addr, align 8
  %cmp = icmp ne ptr %0, null
  br i1 %cmp, label %cond.true, label %cond.false

cond.true:                                        ; preds = %entry
  %1 = load ptr, ptr %memtable_key.addr, align 8
  br label %cond.end

cond.false:                                       ; preds = %entry
  %tmp_ = getelementptr inbounds %"class.rocksdb::(anonymous namespace)::HashLinkListRep::FullListIterator", ptr %this1, i32 0, i32 4
  %2 = load ptr, ptr %internal_key.addr, align 8
  %call = call noundef ptr @_ZN7rocksdb9EncodeKeyEPNSt7__cxx1112basic_stringIcSt11char_traitsIcESaIcEEERKNS_5SliceE(ptr noundef %tmp_, ptr noundef nonnull align 8 dereferenceable(16) %2)
  br label %cond.end

cond.end:                                         ; preds = %cond.false, %cond.true
  %cond = phi ptr [ %1, %cond.true ], [ %call, %cond.false ]
  store ptr %cond, ptr %encoded_key, align 8
  %iter_ = getelementptr inbounds %"class.rocksdb::(anonymous namespace)::HashLinkListRep::FullListIterator", ptr %this1, i32 0, i32 1
  call void @_ZN7rocksdb8SkipListIPKcRKNS_11MemTableRep13KeyComparatorEE8Iterator11SeekForPrevERKS2_(ptr noundef nonnull align 8 dereferenceable(16) %iter_, ptr noundef nonnull align 8 dereferenceable(8) %encoded_key)
  ret void
}