; Function Attrs: mustprogress uwtable
define internal void @_ZN7rocksdb12_GLOBAL__N_115HashLinkListRep16FullListIterator11SeekForPrevERKNS_5SliceEPKc(ptr noundef nonnull align 8 dereferenceable(72) %this, ptr noundef nonnull align 8 dereferenceable(16) %internal_key, ptr noundef %memtable_key) unnamed_addr #3 align 2 {
entry:
  %encoded_key = alloca ptr, align 8
  %cmp.not = icmp eq ptr %memtable_key, null
  br i1 %cmp.not, label %cond.false, label %cond.end

cond.false:                                       ; preds = %entry
  %tmp_ = getelementptr inbounds i8, ptr %this, i64 40
  %call = tail call noundef ptr @_ZN7rocksdb9EncodeKeyEPNSt7__cxx1112basic_stringIcSt11char_traitsIcESaIcEEERKNS_5SliceE(ptr noundef nonnull %tmp_, ptr noundef nonnull align 8 dereferenceable(16) %internal_key)
  br label %cond.end

cond.end:                                         ; preds = %entry, %cond.false
  %cond = phi ptr [ %call, %cond.false ], [ %memtable_key, %entry ]
  store ptr %cond, ptr %encoded_key, align 8
  %iter_ = getelementptr inbounds i8, ptr %this, i64 8
  call void @_ZN7rocksdb8SkipListIPKcRKNS_11MemTableRep13KeyComparatorEE8Iterator11SeekForPrevERKS2_(ptr noundef nonnull align 8 dereferenceable(16) %iter_, ptr noundef nonnull align 8 dereferenceable(8) %encoded_key)
  ret void
}